; Function Attrs: mustprogress nofree norecurse nosync nounwind willreturn memory(argmem: write) uwtable
define hidden void @mbedtls_ssl_conf_session_tickets_cb(ptr noundef writeonly captures(none) initializes((168, 192)) %0, ptr noundef %1, ptr noundef %2, ptr noundef %3) local_unnamed_addr #0 {
  %5 = getelementptr inbounds nuw i8, ptr %0, i64 168
  store ptr %1, ptr %5, align 8, !tbaa !203
  %6 = getelementptr inbounds nuw i8, ptr %0, i64 176
  store ptr %2, ptr %6, align 8, !tbaa !204
  %7 = getelementptr inbounds nuw i8, ptr %0, i64 184
  store ptr %3, ptr %7, align 8, !tbaa !205
  ret void
}